
bin/Release/QSD67LC.elf:     file format elf32-avr

Sections:
Idx Name          Size      VMA       LMA       File off  Algn
  0 .data         00000084  00801100  000003f6  0000048a  2**0
                  CONTENTS, ALLOC, LOAD, DATA
  1 .text         000003f6  00000000  00000000  00000094  2**1
                  CONTENTS, ALLOC, LOAD, READONLY, CODE
  2 .bss          00000049  00801184  00801184  0000050e  2**0
                  ALLOC
  3 .comment      00000011  00000000  00000000  0000050e  2**0
                  CONTENTS, READONLY
  4 .note.gnu.avr.deviceinfo 0000003c  00000000  00000000  00000520  2**2
                  CONTENTS, READONLY

Disassembly of section .text:

00000000 <__vectors>:
   0:	12 c0       	rjmp	.+36     	; 0x26 <__ctors_end>
   2:	2c c0       	rjmp	.+88     	; 0x5c <__bad_interrupt>
   4:	53 c0       	rjmp	.+166    	; 0xac <__vector_2>
   6:	2a c0       	rjmp	.+84     	; 0x5c <__bad_interrupt>
   8:	29 c0       	rjmp	.+82     	; 0x5c <__bad_interrupt>
   a:	28 c0       	rjmp	.+80     	; 0x5c <__bad_interrupt>
   c:	27 c0       	rjmp	.+78     	; 0x5c <__bad_interrupt>
   e:	26 c0       	rjmp	.+76     	; 0x5c <__bad_interrupt>
  10:	25 c0       	rjmp	.+74     	; 0x5c <__bad_interrupt>
  12:	25 c0       	rjmp	.+74     	; 0x5e <__vector_9>
  14:	23 c0       	rjmp	.+70     	; 0x5c <__bad_interrupt>
  16:	ea c0       	rjmp	.+468    	; 0x1ec <__vector_11>
  18:	15 c1       	rjmp	.+554    	; 0x244 <__vector_12>
  1a:	20 c0       	rjmp	.+64     	; 0x5c <__bad_interrupt>
  1c:	1f c0       	rjmp	.+62     	; 0x5c <__bad_interrupt>
  1e:	1e c0       	rjmp	.+60     	; 0x5c <__bad_interrupt>
  20:	1d c0       	rjmp	.+58     	; 0x5c <__bad_interrupt>
  22:	1c c0       	rjmp	.+56     	; 0x5c <__bad_interrupt>
  24:	1b c0       	rjmp	.+54     	; 0x5c <__bad_interrupt>

00000026 <__ctors_end>:
  26:	11 24       	eor	r1, r1
  28:	1f be       	out	0x3f, r1	; 63
  2a:	cf e5       	ldi	r28, 0x5F	; 95
  2c:	d4 e0       	ldi	r29, 0x04	; 4
  2e:	de bf       	out	0x3e, r29	; 62
  30:	cd bf       	out	0x3d, r28	; 61

00000032 <__do_copy_data>:
  32:	11 e1       	ldi	r17, 0x11	; 17
  34:	a0 e0       	ldi	r26, 0x00	; 0
  36:	b1 e1       	ldi	r27, 0x11	; 17
  38:	e6 ef       	ldi	r30, 0xF6	; 246
  3a:	f3 e0       	ldi	r31, 0x03	; 3
  3c:	02 c0       	rjmp	.+4      	; 0x42 <__SREG__+0x3>
  3e:	05 90       	lpm	r0, Z+
  40:	0d 92       	st	X+, r0
  42:	a4 38       	cpi	r26, 0x84	; 132
  44:	b1 07       	cpc	r27, r17
  46:	d9 f7       	brne	.-10     	; 0x3e <__SP_H__>

00000048 <__do_clear_bss>:
  48:	21 e1       	ldi	r18, 0x11	; 17
  4a:	a4 e8       	ldi	r26, 0x84	; 132
  4c:	b1 e1       	ldi	r27, 0x11	; 17
  4e:	01 c0       	rjmp	.+2      	; 0x52 <.do_clear_bss_start>

00000050 <.do_clear_bss_loop>:
  50:	1d 92       	st	X+, r1

00000052 <.do_clear_bss_start>:
  52:	ad 3c       	cpi	r26, 0xCD	; 205
  54:	b2 07       	cpc	r27, r18
  56:	e1 f7       	brne	.-8      	; 0x50 <.do_clear_bss_loop>
  58:	76 d1       	rcall	.+748    	; 0x346 <main>
  5a:	cb c1       	rjmp	.+918    	; 0x3f2 <_exit>

0000005c <__bad_interrupt>:
  5c:	d1 cf       	rjmp	.-94     	; 0x0 <__vectors>

0000005e <__vector_9>:
  5e:	1f 92       	push	r1
  60:	0f 92       	push	r0
  62:	0f b6       	in	r0, 0x3f	; 63
  64:	0f 92       	push	r0
  66:	11 24       	eor	r1, r1
  68:	5f 93       	push	r21
  6a:	6f 93       	push	r22
  6c:	7f 93       	push	r23
  6e:	8f 93       	push	r24
  70:	9f 93       	push	r25
  72:	af 93       	push	r26
  74:	bf 93       	push	r27
  76:	80 91 84 11 	lds	r24, 0x1184
  7a:	90 91 85 11 	lds	r25, 0x1185
  7e:	6c e4       	ldi	r22, 0x4C	; 76
  80:	7e e0       	ldi	r23, 0x0E	; 14
  82:	6c d1       	rcall	.+728    	; 0x35c <__udivmodhi4>
  84:	70 93 87 11 	sts	0x1187, r23
  88:	60 93 86 11 	sts	0x1186, r22
  8c:	10 92 85 11 	sts	0x1185, r1
  90:	10 92 84 11 	sts	0x1184, r1
  94:	bf 91       	pop	r27
  96:	af 91       	pop	r26
  98:	9f 91       	pop	r25
  9a:	8f 91       	pop	r24
  9c:	7f 91       	pop	r23
  9e:	6f 91       	pop	r22
  a0:	5f 91       	pop	r21
  a2:	0f 90       	pop	r0
  a4:	0f be       	out	0x3f, r0	; 63
  a6:	0f 90       	pop	r0
  a8:	1f 90       	pop	r1
  aa:	18 95       	reti

000000ac <__vector_2>:
  ac:	1f 92       	push	r1
  ae:	0f 92       	push	r0
  b0:	0f b6       	in	r0, 0x3f	; 63
  b2:	0f 92       	push	r0
  b4:	11 24       	eor	r1, r1
  b6:	8f 93       	push	r24
  b8:	9f 93       	push	r25
  ba:	80 91 84 11 	lds	r24, 0x1184
  be:	90 91 85 11 	lds	r25, 0x1185
  c2:	01 96       	adiw	r24, 0x01	; 1
  c4:	90 93 85 11 	sts	0x1185, r25
  c8:	80 93 84 11 	sts	0x1184, r24
  cc:	9f 91       	pop	r25
  ce:	8f 91       	pop	r24
  d0:	0f 90       	pop	r0
  d2:	0f be       	out	0x3f, r0	; 63
  d4:	0f 90       	pop	r0
  d6:	1f 90       	pop	r1
  d8:	18 95       	reti

000000da <_Z4initv>:
  da:	84 b3       	in	r24, 0x14	; 20
  dc:	87 60       	ori	r24, 0x07	; 7
  de:	84 bb       	out	0x14, r24	; 20
  e0:	a5 98       	cbi	0x14, 5	; 20
  e2:	8a 98       	cbi	0x11, 2	; 17
  e4:	8f 9a       	sbi	0x11, 7	; 17
  e6:	b8 9a       	sbi	0x17, 0	; 23
  e8:	87 e6       	ldi	r24, 0x67	; 103
  ea:	90 e0       	ldi	r25, 0x00	; 0
  ec:	d0 d0       	rcall	.+416    	; 0x28e <_Z9uart_initj>
  ee:	78 94       	sei
  f0:	8b b7       	in	r24, 0x3b	; 59
  f2:	80 68       	ori	r24, 0x80	; 128
  f4:	8b bf       	out	0x3b, r24	; 59
  f6:	85 b7       	in	r24, 0x35	; 53
  f8:	84 60       	ori	r24, 0x04	; 4
  fa:	85 bf       	out	0x35, r24	; 53
  fc:	85 b7       	in	r24, 0x35	; 53
  fe:	88 60       	ori	r24, 0x08	; 8
 100:	85 bf       	out	0x35, r24	; 53
 102:	10 92 85 11 	sts	0x1185, r1
 106:	10 92 84 11 	sts	0x1184, r1
 10a:	10 92 87 11 	sts	0x1187, r1
 10e:	10 92 86 11 	sts	0x1186, r1
 112:	83 b7       	in	r24, 0x33	; 51
 114:	85 60       	ori	r24, 0x05	; 5
 116:	83 bf       	out	0x33, r24	; 51
 118:	12 be       	out	0x32, r1	; 50
 11a:	89 b7       	in	r24, 0x39	; 57
 11c:	81 60       	ori	r24, 0x01	; 1
 11e:	89 bf       	out	0x39, r24	; 57
 120:	97 9a       	sbi	0x12, 7	; 18
 122:	85 b3       	in	r24, 0x15	; 21
 124:	88 7f       	andi	r24, 0xF8	; 248
 126:	85 bb       	out	0x15, r24	; 21
 128:	84 e6       	ldi	r24, 0x64	; 100
 12a:	90 e0       	ldi	r25, 0x00	; 0
 12c:	ef e3       	ldi	r30, 0x3F	; 63
 12e:	fc e9       	ldi	r31, 0x9C	; 156
 130:	31 97       	sbiw	r30, 0x01	; 1
 132:	f1 f7       	brne	.-4      	; 0x130 <_Z4initv+0x56>
 134:	00 c0       	rjmp	.+0      	; 0x136 <_Z4initv+0x5c>
 136:	00 00       	nop
 138:	01 97       	sbiw	r24, 0x01	; 1
 13a:	c1 f7       	brne	.-16     	; 0x12c <_Z4initv+0x52>
 13c:	85 b3       	in	r24, 0x15	; 21
 13e:	86 60       	ori	r24, 0x06	; 6
 140:	85 bb       	out	0x15, r24	; 21
 142:	c0 98       	cbi	0x18, 0	; 24
 144:	c0 9a       	sbi	0x18, 0	; 24
 146:	08 95       	ret

00000148 <_Z6buttonv>:
 148:	83 b3       	in	r24, 0x13	; 19
 14a:	85 fb       	bst	r24, 5
 14c:	88 27       	eor	r24, r24
 14e:	80 f9       	bld	r24, 0
 150:	08 95       	ret

00000152 <_Z11shiftSensorv>:
 152:	80 b3       	in	r24, 0x10	; 16
 154:	82 fb       	bst	r24, 2
 156:	88 27       	eor	r24, r24
 158:	80 f9       	bld	r24, 0
 15a:	08 95       	ret

0000015c <_Z6setLedhb>:
 15c:	45 b3       	in	r20, 0x15	; 21
 15e:	21 e0       	ldi	r18, 0x01	; 1
 160:	30 e0       	ldi	r19, 0x00	; 0
 162:	66 23       	and	r22, r22
 164:	51 f0       	breq	.+20     	; 0x17a <_Z6setLedhb+0x1e>
 166:	b9 01       	movw	r22, r18
 168:	02 c0       	rjmp	.+4      	; 0x16e <_Z6setLedhb+0x12>
 16a:	66 0f       	add	r22, r22
 16c:	77 1f       	adc	r23, r23
 16e:	8a 95       	dec	r24
 170:	e2 f7       	brpl	.-8      	; 0x16a <_Z6setLedhb+0xe>
 172:	cb 01       	movw	r24, r22
 174:	80 95       	com	r24
 176:	84 23       	and	r24, r20
 178:	08 c0       	rjmp	.+16     	; 0x18a <_Z6setLedhb+0x2e>
 17a:	b9 01       	movw	r22, r18
 17c:	02 c0       	rjmp	.+4      	; 0x182 <_Z6setLedhb+0x26>
 17e:	66 0f       	add	r22, r22
 180:	77 1f       	adc	r23, r23
 182:	8a 95       	dec	r24
 184:	e2 f7       	brpl	.-8      	; 0x17e <_Z6setLedhb+0x22>
 186:	cb 01       	movw	r24, r22
 188:	84 2b       	or	r24, r20
 18a:	85 bb       	out	0x15, r24	; 21
 18c:	08 95       	ret

0000018e <_Z11setIgnitionb>:
 18e:	88 23       	and	r24, r24
 190:	11 f0       	breq	.+4      	; 0x196 <_Z11setIgnitionb+0x8>
 192:	97 9a       	sbi	0x12, 7	; 18
 194:	08 95       	ret
 196:	97 98       	cbi	0x12, 7	; 18
 198:	08 95       	ret

0000019a <_Z14printShifttimeh>:
 19a:	1f 93       	push	r17
 19c:	cf 93       	push	r28
 19e:	df 93       	push	r29
 1a0:	00 d0       	rcall	.+0      	; 0x1a2 <_Z14printShifttimeh+0x8>
 1a2:	00 d0       	rcall	.+0      	; 0x1a4 <_Z14printShifttimeh+0xa>
 1a4:	cd b7       	in	r28, 0x3d	; 61
 1a6:	de b7       	in	r29, 0x3e	; 62
 1a8:	18 2f       	mov	r17, r24
 1aa:	80 e0       	ldi	r24, 0x00	; 0
 1ac:	91 e1       	ldi	r25, 0x11	; 17
 1ae:	b2 d0       	rcall	.+356    	; 0x314 <_Z9uart_putsPKc>
 1b0:	84 e2       	ldi	r24, 0x24	; 36
 1b2:	91 e1       	ldi	r25, 0x11	; 17
 1b4:	af d0       	rcall	.+350    	; 0x314 <_Z9uart_putsPKc>
 1b6:	88 e4       	ldi	r24, 0x48	; 72
 1b8:	91 e1       	ldi	r25, 0x11	; 17
 1ba:	ac d0       	rcall	.+344    	; 0x314 <_Z9uart_putsPKc>
 1bc:	4a e0       	ldi	r20, 0x0A	; 10
 1be:	be 01       	movw	r22, r28
 1c0:	6f 5f       	subi	r22, 0xFF	; 255
 1c2:	7f 4f       	sbci	r23, 0xFF	; 255
 1c4:	81 2f       	mov	r24, r17
 1c6:	90 e0       	ldi	r25, 0x00	; 0
 1c8:	dd d0       	rcall	.+442    	; 0x384 <__itoa_ncheck>
 1ca:	8d e6       	ldi	r24, 0x6D	; 109
 1cc:	91 e1       	ldi	r25, 0x11	; 17
 1ce:	a2 d0       	rcall	.+324    	; 0x314 <_Z9uart_putsPKc>
 1d0:	ce 01       	movw	r24, r28
 1d2:	01 96       	adiw	r24, 0x01	; 1
 1d4:	9f d0       	rcall	.+318    	; 0x314 <_Z9uart_putsPKc>
 1d6:	81 e8       	ldi	r24, 0x81	; 129
 1d8:	91 e1       	ldi	r25, 0x11	; 17
 1da:	9c d0       	rcall	.+312    	; 0x314 <_Z9uart_putsPKc>
 1dc:	0f 90       	pop	r0
 1de:	0f 90       	pop	r0
 1e0:	0f 90       	pop	r0
 1e2:	0f 90       	pop	r0
 1e4:	df 91       	pop	r29
 1e6:	cf 91       	pop	r28
 1e8:	1f 91       	pop	r17
 1ea:	08 95       	ret

000001ec <__vector_11>:
 1ec:	1f 92       	push	r1
 1ee:	0f 92       	push	r0
 1f0:	0f b6       	in	r0, 0x3f	; 63
 1f2:	0f 92       	push	r0
 1f4:	11 24       	eor	r1, r1
 1f6:	2f 93       	push	r18
 1f8:	8f 93       	push	r24
 1fa:	9f 93       	push	r25
 1fc:	ef 93       	push	r30
 1fe:	ff 93       	push	r31
 200:	8b b1       	in	r24, 0x0b	; 11
 202:	9c b1       	in	r25, 0x0c	; 12
 204:	88 71       	andi	r24, 0x18	; 24
 206:	e0 91 8a 11 	lds	r30, 0x118A
 20a:	ef 5f       	subi	r30, 0xFF	; 255
 20c:	ef 71       	andi	r30, 0x1F	; 31
 20e:	20 91 89 11 	lds	r18, 0x1189
 212:	e2 17       	cp	r30, r18
 214:	39 f0       	breq	.+14     	; 0x224 <__vector_11+0x38>
 216:	e0 93 8a 11 	sts	0x118A, r30
 21a:	f0 e0       	ldi	r31, 0x00	; 0
 21c:	e3 57       	subi	r30, 0x73	; 115
 21e:	fe 4e       	sbci	r31, 0xEE	; 238
 220:	90 83       	st	Z, r25
 222:	01 c0       	rjmp	.+2      	; 0x226 <__vector_11+0x3a>
 224:	82 e0       	ldi	r24, 0x02	; 2
 226:	90 91 88 11 	lds	r25, 0x1188
 22a:	89 2b       	or	r24, r25
 22c:	80 93 88 11 	sts	0x1188, r24
 230:	ff 91       	pop	r31
 232:	ef 91       	pop	r30
 234:	9f 91       	pop	r25
 236:	8f 91       	pop	r24
 238:	2f 91       	pop	r18
 23a:	0f 90       	pop	r0
 23c:	0f be       	out	0x3f, r0	; 63
 23e:	0f 90       	pop	r0
 240:	1f 90       	pop	r1
 242:	18 95       	reti

00000244 <__vector_12>:
 244:	1f 92       	push	r1
 246:	0f 92       	push	r0
 248:	0f b6       	in	r0, 0x3f	; 63
 24a:	0f 92       	push	r0
 24c:	11 24       	eor	r1, r1
 24e:	8f 93       	push	r24
 250:	9f 93       	push	r25
 252:	ef 93       	push	r30
 254:	ff 93       	push	r31
 256:	90 91 8c 11 	lds	r25, 0x118C
 25a:	80 91 8b 11 	lds	r24, 0x118B
 25e:	98 17       	cp	r25, r24
 260:	61 f0       	breq	.+24     	; 0x27a <__vector_12+0x36>
 262:	e0 91 8b 11 	lds	r30, 0x118B
 266:	ef 5f       	subi	r30, 0xFF	; 255
 268:	ef 71       	andi	r30, 0x1F	; 31
 26a:	e0 93 8b 11 	sts	0x118B, r30
 26e:	f0 e0       	ldi	r31, 0x00	; 0
 270:	e3 55       	subi	r30, 0x53	; 83
 272:	fe 4e       	sbci	r31, 0xEE	; 238
 274:	80 81       	ld	r24, Z
 276:	8c b9       	out	0x0c, r24	; 12
 278:	01 c0       	rjmp	.+2      	; 0x27c <__vector_12+0x38>
 27a:	55 98       	cbi	0x0a, 5	; 10
 27c:	ff 91       	pop	r31
 27e:	ef 91       	pop	r30
 280:	9f 91       	pop	r25
 282:	8f 91       	pop	r24
 284:	0f 90       	pop	r0
 286:	0f be       	out	0x3f, r0	; 63
 288:	0f 90       	pop	r0
 28a:	1f 90       	pop	r1
 28c:	18 95       	reti

0000028e <_Z9uart_initj>:
 28e:	10 92 8c 11 	sts	0x118C, r1
 292:	10 92 8b 11 	sts	0x118B, r1
 296:	10 92 8a 11 	sts	0x118A, r1
 29a:	10 92 89 11 	sts	0x1189, r1
 29e:	97 ff       	sbrs	r25, 7
 2a0:	02 c0       	rjmp	.+4      	; 0x2a6 <_Z9uart_initj+0x18>
 2a2:	22 e0       	ldi	r18, 0x02	; 2
 2a4:	2b b9       	out	0x0b, r18	; 11
 2a6:	90 78       	andi	r25, 0x80	; 128
 2a8:	90 bd       	out	0x20, r25	; 32
 2aa:	89 b9       	out	0x09, r24	; 9
 2ac:	88 e9       	ldi	r24, 0x98	; 152
 2ae:	8a b9       	out	0x0a, r24	; 10
 2b0:	86 e8       	ldi	r24, 0x86	; 134
 2b2:	80 bd       	out	0x20, r24	; 32
 2b4:	08 95       	ret

000002b6 <_Z9uart_getcv>:
 2b6:	90 91 8a 11 	lds	r25, 0x118A
 2ba:	80 91 89 11 	lds	r24, 0x1189
 2be:	98 17       	cp	r25, r24
 2c0:	a9 f0       	breq	.+42     	; 0x2ec <_Z9uart_getcv+0x36>
 2c2:	90 91 89 11 	lds	r25, 0x1189
 2c6:	9f 5f       	subi	r25, 0xFF	; 255
 2c8:	9f 71       	andi	r25, 0x1F	; 31
 2ca:	e9 2f       	mov	r30, r25
 2cc:	f0 e0       	ldi	r31, 0x00	; 0
 2ce:	e3 57       	subi	r30, 0x73	; 115
 2d0:	fe 4e       	sbci	r31, 0xEE	; 238
 2d2:	20 81       	ld	r18, Z
 2d4:	80 91 88 11 	lds	r24, 0x1188
 2d8:	90 93 89 11 	sts	0x1189, r25
 2dc:	10 92 88 11 	sts	0x1188, r1
 2e0:	90 e0       	ldi	r25, 0x00	; 0
 2e2:	98 2f       	mov	r25, r24
 2e4:	88 27       	eor	r24, r24
 2e6:	82 0f       	add	r24, r18
 2e8:	91 1d       	adc	r25, r1
 2ea:	08 95       	ret
 2ec:	80 e0       	ldi	r24, 0x00	; 0
 2ee:	91 e0       	ldi	r25, 0x01	; 1
 2f0:	08 95       	ret

000002f2 <_Z9uart_putch>:
 2f2:	90 91 8c 11 	lds	r25, 0x118C
 2f6:	9f 5f       	subi	r25, 0xFF	; 255
 2f8:	9f 71       	andi	r25, 0x1F	; 31
 2fa:	20 91 8b 11 	lds	r18, 0x118B
 2fe:	92 17       	cp	r25, r18
 300:	e1 f3       	breq	.-8      	; 0x2fa <_Z9uart_putch+0x8>
 302:	e9 2f       	mov	r30, r25
 304:	f0 e0       	ldi	r31, 0x00	; 0
 306:	e3 55       	subi	r30, 0x53	; 83
 308:	fe 4e       	sbci	r31, 0xEE	; 238
 30a:	80 83       	st	Z, r24
 30c:	90 93 8c 11 	sts	0x118C, r25
 310:	55 9a       	sbi	0x0a, 5	; 10
 312:	08 95       	ret

00000314 <_Z9uart_putsPKc>:
 314:	cf 93       	push	r28
 316:	df 93       	push	r29
 318:	ec 01       	movw	r28, r24
 31a:	89 91       	ld	r24, Y+
 31c:	88 23       	and	r24, r24
 31e:	11 f0       	breq	.+4      	; 0x324 <_Z9uart_putsPKc+0x10>
 320:	e8 df       	rcall	.-48     	; 0x2f2 <_Z9uart_putch>
 322:	fb cf       	rjmp	.-10     	; 0x31a <_Z9uart_putsPKc+0x6>
 324:	df 91       	pop	r29
 326:	cf 91       	pop	r28
 328:	08 95       	ret

0000032a <_Z11uart_puts_pPKc>:
 32a:	cf 93       	push	r28
 32c:	df 93       	push	r29
 32e:	fc 01       	movw	r30, r24
 330:	84 91       	lpm	r24, Z
 332:	ef 01       	movw	r28, r30
 334:	21 96       	adiw	r28, 0x01	; 1
 336:	88 23       	and	r24, r24
 338:	19 f0       	breq	.+6      	; 0x340 <_Z11uart_puts_pPKc+0x16>
 33a:	db df       	rcall	.-74     	; 0x2f2 <_Z9uart_putch>
 33c:	fe 01       	movw	r30, r28
 33e:	f8 cf       	rjmp	.-16     	; 0x330 <_Z11uart_puts_pPKc+0x6>
 340:	df 91       	pop	r29
 342:	cf 91       	pop	r28
 344:	08 95       	ret

00000346 <main>:
 346:	c9 de       	rcall	.-622    	; 0xda <_Z4initv>
 348:	ff de       	rcall	.-514    	; 0x148 <_Z6buttonv>
 34a:	88 23       	and	r24, r24
 34c:	e9 f3       	breq	.-6      	; 0x348 <main+0x2>
 34e:	a9 98       	cbi	0x15, 1	; 21
 350:	85 e5       	ldi	r24, 0x55	; 85
 352:	23 df       	rcall	.-442    	; 0x19a <_Z14printShifttimeh>
 354:	f9 de       	rcall	.-526    	; 0x148 <_Z6buttonv>
 356:	88 23       	and	r24, r24
 358:	e9 f3       	breq	.-6      	; 0x354 <main+0xe>
 35a:	fa cf       	rjmp	.-12     	; 0x350 <main+0xa>

0000035c <__udivmodhi4>:
 35c:	aa 1b       	sub	r26, r26
 35e:	bb 1b       	sub	r27, r27
 360:	51 e1       	ldi	r21, 0x11	; 17
 362:	07 c0       	rjmp	.+14     	; 0x372 <__udivmodhi4_ep>

00000364 <__udivmodhi4_loop>:
 364:	aa 1f       	adc	r26, r26
 366:	bb 1f       	adc	r27, r27
 368:	a6 17       	cp	r26, r22
 36a:	b7 07       	cpc	r27, r23
 36c:	10 f0       	brcs	.+4      	; 0x372 <__udivmodhi4_ep>
 36e:	a6 1b       	sub	r26, r22
 370:	b7 0b       	sbc	r27, r23

00000372 <__udivmodhi4_ep>:
 372:	88 1f       	adc	r24, r24
 374:	99 1f       	adc	r25, r25
 376:	5a 95       	dec	r21
 378:	a9 f7       	brne	.-22     	; 0x364 <__udivmodhi4_loop>
 37a:	80 95       	com	r24
 37c:	90 95       	com	r25
 37e:	bc 01       	movw	r22, r24
 380:	cd 01       	movw	r24, r26
 382:	08 95       	ret

00000384 <__itoa_ncheck>:
 384:	bb 27       	eor	r27, r27
 386:	4a 30       	cpi	r20, 0x0A	; 10
 388:	31 f4       	brne	.+12     	; 0x396 <__itoa_ncheck+0x12>
 38a:	99 23       	and	r25, r25
 38c:	22 f4       	brpl	.+8      	; 0x396 <__itoa_ncheck+0x12>
 38e:	bd e2       	ldi	r27, 0x2D	; 45
 390:	90 95       	com	r25
 392:	81 95       	neg	r24
 394:	9f 4f       	sbci	r25, 0xFF	; 255
 396:	01 c0       	rjmp	.+2      	; 0x39a <__utoa_common>

00000398 <__utoa_ncheck>:
 398:	bb 27       	eor	r27, r27

0000039a <__utoa_common>:
 39a:	e6 2f       	mov	r30, r22
 39c:	f7 2f       	mov	r31, r23
 39e:	55 27       	eor	r21, r21
 3a0:	aa 27       	eor	r26, r26
 3a2:	88 0f       	add	r24, r24
 3a4:	99 1f       	adc	r25, r25
 3a6:	aa 1f       	adc	r26, r26
 3a8:	a4 17       	cp	r26, r20
 3aa:	10 f0       	brcs	.+4      	; 0x3b0 <__utoa_common+0x16>
 3ac:	a4 1b       	sub	r26, r20
 3ae:	83 95       	inc	r24
 3b0:	50 51       	subi	r21, 0x10	; 16
 3b2:	b9 f7       	brne	.-18     	; 0x3a2 <__utoa_common+0x8>
 3b4:	a0 5d       	subi	r26, 0xD0	; 208
 3b6:	aa 33       	cpi	r26, 0x3A	; 58
 3b8:	08 f0       	brcs	.+2      	; 0x3bc <__utoa_common+0x22>
 3ba:	a9 5d       	subi	r26, 0xD9	; 217
 3bc:	a1 93       	st	Z+, r26
 3be:	00 97       	sbiw	r24, 0x00	; 0
 3c0:	79 f7       	brne	.-34     	; 0x3a0 <__utoa_common+0x6>
 3c2:	b1 11       	cpse	r27, r1
 3c4:	b1 93       	st	Z+, r27
 3c6:	11 92       	st	Z+, r1
 3c8:	86 2f       	mov	r24, r22
 3ca:	97 2f       	mov	r25, r23
 3cc:	00 c0       	rjmp	.+0      	; 0x3ce <strrev>

000003ce <strrev>:
 3ce:	a8 2f       	mov	r26, r24
 3d0:	b9 2f       	mov	r27, r25
 3d2:	e8 2f       	mov	r30, r24
 3d4:	f9 2f       	mov	r31, r25
 3d6:	67 2f       	mov	r22, r23
 3d8:	71 91       	ld	r23, Z+
 3da:	77 23       	and	r23, r23
 3dc:	e1 f7       	brne	.-8      	; 0x3d6 <strrev+0x8>
 3de:	32 97       	sbiw	r30, 0x02	; 2
 3e0:	04 c0       	rjmp	.+8      	; 0x3ea <strrev+0x1c>
 3e2:	7c 91       	ld	r23, X
 3e4:	6d 93       	st	X+, r22
 3e6:	70 83       	st	Z, r23
 3e8:	62 91       	ld	r22, -Z
 3ea:	ae 17       	cp	r26, r30
 3ec:	bf 07       	cpc	r27, r31
 3ee:	c8 f3       	brcs	.-14     	; 0x3e2 <strrev+0x14>
 3f0:	08 95       	ret

000003f2 <_exit>:
 3f2:	f8 94       	cli

000003f4 <__stop_program>:
 3f4:	ff cf       	rjmp	.-2      	; 0x3f4 <__stop_program>
